; Function Attrs: mustprogress uwtable
define hidden noundef i32 @_ZN11realclosure7manager7compareERKNS_3numES3_(ptr noundef nonnull readonly align 8 captures(none) dereferenceable(8) %0, ptr noundef nonnull readonly align 8 captures(none) dereferenceable(8) %1, ptr noundef nonnull readonly align 8 captures(none) dereferenceable(8) %2) local_unnamed_addr #5 align 2 personality ptr @__gxx_personality_v0 {
  %4 = alloca %"class.realclosure::save_interval_ctx", align 8
  call void @llvm.lifetime.start.p0(i64 8, ptr nonnull %4) #24
  %5 = load ptr, ptr %0, align 8, !tbaa !11
  store ptr %5, ptr %4, align 8, !tbaa !91
  %6 = load ptr, ptr %1, align 8, !tbaa !84
  %7 = load ptr, ptr %2, align 8, !tbaa !84
  %8 = invoke noundef i32 @_ZN11realclosure7manager3imp7compareEPNS_5valueES3_(ptr noundef nonnull align 8 dereferenceable(1497) %5, ptr noundef %6, ptr noundef %7)
          to label %_ZN11realclosure7manager3imp7compareERKNS_3numES4_.exit unwind label %14

_ZN11realclosure7manager3imp7compareERKNS_3numES4_.exit: ; preds = %3
  %9 = getelementptr inbounds nuw i8, ptr %5, i64 1392
  invoke void @_ZN11realclosure7manager3imp23restore_saved_intervalsINS_5valueEEEvR10ptr_vectorIT_E(ptr noundef nonnull align 8 dereferenceable(1497) %5, ptr noundef nonnull align 8 dereferenceable(8) %9)
          to label %.noexc.i unwind label %11

.noexc.i:                                         ; preds = %_ZN11realclosure7manager3imp7compareERKNS_3numES4_.exit
  %10 = getelementptr inbounds nuw i8, ptr %5, i64 1400
  invoke void @_ZN11realclosure7manager3imp23restore_saved_intervalsINS_9extensionEEEvR10ptr_vectorIT_E(ptr noundef nonnull align 8 dereferenceable(1497) %5, ptr noundef nonnull align 8 dereferenceable(8) %10)
          to label %_ZN11realclosure17save_interval_ctxD2Ev.exit unwind label %11

11:                                               ; preds = %.noexc.i, %_ZN11realclosure7manager3imp7compareERKNS_3numES4_.exit
  %12 = landingpad { ptr, i32 }
          catch ptr null
  %13 = extractvalue { ptr, i32 } %12, 0
  tail call void @__clang_call_terminate(ptr %13) #25
  unreachable

_ZN11realclosure17save_interval_ctxD2Ev.exit:     ; preds = %.noexc.i
  call void @llvm.lifetime.end.p0(i64 8, ptr nonnull %4) #24
  ret i32 %8

14:                                               ; preds = %3
  %15 = landingpad { ptr, i32 }
          cleanup
  call void @_ZN11realclosure17save_interval_ctxD2Ev(ptr noundef nonnull align 8 dereferenceable(8) %4) #24
  call void @llvm.lifetime.end.p0(i64 8, ptr nonnull %4) #24
  resume { ptr, i32 } %15
}